target datalayout = "e-m:e-p270:32:32-p271:32:32-p272:64:64-i64:64-i128:128-f80:128-n8:16:32:64-S128"
target triple = "x86_64-unknown-linux-gnu"

%"class.icu_75::UObject" = type { ptr }
%"class.icu_75::Normalizer2Impl" = type { %"class.icu_75::UObject", i16, i16, i16, i16, i16, i16, i16, i16, i16, i16, i16, i16, ptr, ptr, ptr, ptr, %"struct.icu_75::UInitOnce", ptr }
%"struct.icu_75::UInitOnce" = type { %"struct.std::atomic", i32 }
%"struct.std::atomic" = type { %"struct.std::__atomic_base" }
%"struct.std::__atomic_base" = type { i32 }
%struct.USetAdder = type { ptr, ptr, ptr, ptr, ptr, ptr }

; Function Attrs: mustprogress nounwind uwtable
define linkonce_odr noundef signext i8 @_ZNK6icu_7515Normalizer2Impl31singleLeadMightHaveNonZeroFCD16Ei(ptr noundef nonnull align 8 dereferenceable(80) %this, i32 noundef %lead) #2 comdat align 2 {
entry:
  %retval = alloca i8, align 1
  %this.addr = alloca ptr, align 8
  %lead.addr = alloca i32, align 4
  %bits = alloca i8, align 1
  store ptr %this, ptr %this.addr, align 8
  store i32 %lead, ptr %lead.addr, align 4
  %this1 = load ptr, ptr %this.addr, align 8
  %smallFCD = getelementptr inbounds %"class.icu_75::Normalizer2Impl", ptr %this1, i32 0, i32 16
  %0 = load ptr, ptr %smallFCD, align 8
  %1 = load i32, ptr %lead.addr, align 4
  %shr = ashr i32 %1, 8
  %idxprom = sext i32 %shr to i64
  %arrayidx = getelementptr inbounds i8, ptr %0, i64 %idxprom
  %2 = load i8, ptr %arrayidx, align 1
  store i8 %2, ptr %bits, align 1
  %3 = load i8, ptr %bits, align 1
  %conv = zext i8 %3 to i32
  %cmp = icmp eq i32 %conv, 0
  br i1 %cmp, label %if.then, label %if.end

if.then:                                          ; preds = %entry
  store i8 0, ptr %retval, align 1
  br label %return

if.end:                                           ; preds = %entry
  %4 = load i8, ptr %bits, align 1
  %conv2 = zext i8 %4 to i32
  %5 = load i32, ptr %lead.addr, align 4
  %shr3 = ashr i32 %5, 5
  %and = and i32 %shr3, 7
  %shr4 = ashr i32 %conv2, %and
  %and5 = and i32 %shr4, 1
  %conv6 = trunc i32 %and5 to i8
  store i8 %conv6, ptr %retval, align 1
  br label %return

return:                                           ; preds = %if.end, %if.then
  %6 = load i8, ptr %retval, align 1
  ret i8 %6
}

; Function Attrs: mustprogress uwtable
define linkonce_odr noundef zeroext i16 @_ZNK6icu_7515Normalizer2Impl8getFCD16Ei(ptr noundef nonnull align 8 dereferenceable(80) %this, i32 noundef %c) #0 comdat align 2 {
entry:
  %retval = alloca i16, align 2
  %this.addr = alloca ptr, align 8
  %c.addr = alloca i32, align 4
  store ptr %this, ptr %this.addr, align 8
  store i32 %c, ptr %c.addr, align 4
  %this1 = load ptr, ptr %this.addr, align 8
  %0 = load i32, ptr %c.addr, align 4
  %minDecompNoCP = getelementptr inbounds %"class.icu_75::Normalizer2Impl", ptr %this1, i32 0, i32 1
  %1 = load i16, ptr %minDecompNoCP, align 8
  %conv = zext i16 %1 to i32
  %cmp = icmp slt i32 %0, %conv
  br i1 %cmp, label %if.then, label %if.else

if.then:                                          ; preds = %entry
  store i16 0, ptr %retval, align 2
  br label %return

if.else:                                          ; preds = %entry
  %2 = load i32, ptr %c.addr, align 4
  %cmp2 = icmp sle i32 %2, 65535
  br i1 %cmp2, label %if.then3, label %if.end5

if.then3:                                         ; preds = %if.else
  %3 = load i32, ptr %c.addr, align 4
  %call = call noundef signext i8 @_ZNK6icu_7515Normalizer2Impl31singleLeadMightHaveNonZeroFCD16Ei(ptr noundef nonnull align 8 dereferenceable(80) %this1, i32 noundef %3)
  %tobool = icmp ne i8 %call, 0
  br i1 %tobool, label %if.end, label %if.then4

if.then4:                                         ; preds = %if.then3
  store i16 0, ptr %retval, align 2
  br label %return

if.end:                                           ; preds = %if.then3
  br label %if.end5

if.end5:                                          ; preds = %if.end, %if.else
  br label %if.end6

if.end6:                                          ; preds = %if.end5
  %4 = load i32, ptr %c.addr, align 4
  %call7 = call noundef zeroext i16 @_ZNK6icu_7515Normalizer2Impl20getFCD16FromNormDataEi(ptr noundef nonnull align 8 dereferenceable(80) %this1, i32 noundef %4)
  store i16 %call7, ptr %retval, align 2
  br label %return

return:                                           ; preds = %if.end6, %if.then4, %if.then
  %5 = load i16, ptr %retval, align 2
  ret i16 %5
}

; Function Attrs: mustprogress nounwind uwtable
define linkonce_odr noundef signext i8 @_ZNK6icu_7515Normalizer2Impl17isAlgorithmicNoNoEt(ptr noundef nonnull align 8 dereferenceable(80) %this, i16 noundef zeroext %norm16) #2 comdat align 2 {
entry:
  %this.addr = alloca ptr, align 8
  %norm16.addr = alloca i16, align 2
  store ptr %this, ptr %this.addr, align 8
  store i16 %norm16, ptr %norm16.addr, align 2
  %this1 = load ptr, ptr %this.addr, align 8
  %limitNoNo = getelementptr inbounds %"class.icu_75::Normalizer2Impl", ptr %this1, i32 0, i32 10
  %0 = load i16, ptr %limitNoNo, align 2
  %conv = zext i16 %0 to i32
  %1 = load i16, ptr %norm16.addr, align 2
  %conv2 = zext i16 %1 to i32
  %cmp = icmp sle i32 %conv, %conv2
  br i1 %cmp, label %land.rhs, label %land.end

land.rhs:                                         ; preds = %entry
  %2 = load i16, ptr %norm16.addr, align 2
  %conv3 = zext i16 %2 to i32
  %minMaybeYes = getelementptr inbounds %"class.icu_75::Normalizer2Impl", ptr %this1, i32 0, i32 12
  %3 = load i16, ptr %minMaybeYes, align 2
  %conv4 = zext i16 %3 to i32
  %cmp5 = icmp slt i32 %conv3, %conv4
  br label %land.end

land.end:                                         ; preds = %land.rhs, %entry
  %4 = phi i1 [ false, %entry ], [ %cmp5, %land.rhs ]
  %conv6 = zext i1 %4 to i8
  ret i8 %conv6
}

; Function Attrs: mustprogress uwtable
define void @_ZNK6icu_7515Normalizer2Impl17addPropertyStartsEPK9USetAdderR10UErrorCode(ptr noundef nonnull align 8 dereferenceable(80) %this, ptr noundef %sa, ptr noundef nonnull align 4 dereferenceable(4) %0) #0 align 2 {
entry:
  %this.addr = alloca ptr, align 8
  %sa.addr = alloca ptr, align 8
  %.addr = alloca ptr, align 8
  %start = alloca i32, align 4
  %end = alloca i32, align 4
  %value = alloca i32, align 4
  %prevFCD16 = alloca i16, align 2
  %fcd16 = alloca i16, align 2
  %c = alloca i16, align 2
  store ptr %this, ptr %this.addr, align 8
  store ptr %sa, ptr %sa.addr, align 8
  store ptr %0, ptr %.addr, align 8
  %this1 = load ptr, ptr %this.addr, align 8
  store i32 0, ptr %start, align 4
  br label %while.cond

while.cond:                                       ; preds = %if.end17, %entry
  %normTrie = getelementptr inbounds %"class.icu_75::Normalizer2Impl", ptr %this1, i32 0, i32 13
  %1 = load ptr, ptr %normTrie, align 8
  %2 = load i32, ptr %start, align 4
  %call = call i32 @ucptrie_getRange_75(ptr noundef %1, i32 noundef %2, i32 noundef 1, i32 noundef 1, ptr noundef null, ptr noundef null, ptr noundef %value)
  store i32 %call, ptr %end, align 4
  %cmp = icmp sge i32 %call, 0
  br i1 %cmp, label %while.body, label %while.end19

while.body:                                       ; preds = %while.cond
  %3 = load ptr, ptr %sa.addr, align 8
  %add = getelementptr inbounds %struct.USetAdder, ptr %3, i32 0, i32 1
  %4 = load ptr, ptr %add, align 8
  %5 = load ptr, ptr %sa.addr, align 8
  %set = getelementptr inbounds %struct.USetAdder, ptr %5, i32 0, i32 0
  %6 = load ptr, ptr %set, align 8
  %7 = load i32, ptr %start, align 4
  call void %4(ptr noundef %6, i32 noundef %7)
  %8 = load i32, ptr %start, align 4
  %9 = load i32, ptr %end, align 4
  %cmp2 = icmp ne i32 %8, %9
  br i1 %cmp2, label %land.lhs.true, label %if.end17

land.lhs.true:                                    ; preds = %while.body
  %10 = load i32, ptr %value, align 4
  %conv = trunc i32 %10 to i16
  %call3 = call noundef signext i8 @_ZNK6icu_7515Normalizer2Impl17isAlgorithmicNoNoEt(ptr noundef nonnull align 8 dereferenceable(80) %this1, i16 noundef zeroext %conv)
  %tobool = icmp ne i8 %call3, 0
  br i1 %tobool, label %land.lhs.true4, label %if.end17

land.lhs.true4:                                   ; preds = %land.lhs.true
  %11 = load i32, ptr %value, align 4
  %and = and i32 %11, 6
  %cmp5 = icmp ugt i32 %and, 2
  br i1 %cmp5, label %if.then, label %if.end17

if.then:                                          ; preds = %land.lhs.true4
  %12 = load i32, ptr %start, align 4
  %call6 = call noundef zeroext i16 @_ZNK6icu_7515Normalizer2Impl8getFCD16Ei(ptr noundef nonnull align 8 dereferenceable(80) %this1, i32 noundef %12)
  store i16 %call6, ptr %prevFCD16, align 2
  br label %while.cond7

while.cond7:                                      ; preds = %if.end, %if.then
  %13 = load i32, ptr %start, align 4
  %inc = add nsw i32 %13, 1
  store i32 %inc, ptr %start, align 4
  %14 = load i32, ptr %end, align 4
  %cmp8 = icmp sle i32 %inc, %14
  br i1 %cmp8, label %while.body9, label %while.end

while.body9:                                      ; preds = %while.cond7
  %15 = load i32, ptr %start, align 4
  %call10 = call noundef zeroext i16 @_ZNK6icu_7515Normalizer2Impl8getFCD16Ei(ptr noundef nonnull align 8 dereferenceable(80) %this1, i32 noundef %15)
  store i16 %call10, ptr %fcd16, align 2
  %16 = load i16, ptr %fcd16, align 2
  %conv11 = zext i16 %16 to i32
  %17 = load i16, ptr %prevFCD16, align 2
  %conv12 = zext i16 %17 to i32
  %cmp13 = icmp ne i32 %conv11, %conv12
  br i1 %cmp13, label %if.then14, label %if.end

if.then14:                                        ; preds = %while.body9
  %18 = load ptr, ptr %sa.addr, align 8
  %add15 = getelementptr inbounds %struct.USetAdder, ptr %18, i32 0, i32 1
  %19 = load ptr, ptr %add15, align 8
  %20 = load ptr, ptr %sa.addr, align 8
  %set16 = getelementptr inbounds %struct.USetAdder, ptr %20, i32 0, i32 0
  %21 = load ptr, ptr %set16, align 8
  %22 = load i32, ptr %start, align 4
  call void %19(ptr noundef %21, i32 noundef %22)
  %23 = load i16, ptr %fcd16, align 2
  store i16 %23, ptr %prevFCD16, align 2
  br label %if.end

if.end:                                           ; preds = %if.then14, %while.body9
  br label %while.cond7, !llvm.loop !12

while.end:                                        ; preds = %while.cond7
  br label %if.end17

if.end17:                                         ; preds = %while.end, %land.lhs.true4, %land.lhs.true, %while.body
  %24 = load i32, ptr %end, align 4
  %add18 = add nsw i32 %24, 1
  store i32 %add18, ptr %start, align 4
  br label %while.cond, !llvm.loop !13

while.end19:                                      ; preds = %while.cond
  store i16 -21504, ptr %c, align 2
  br label %for.cond

for.cond:                                         ; preds = %for.inc, %while.end19
  %25 = load i16, ptr %c, align 2
  %conv20 = zext i16 %25 to i32
  %cmp21 = icmp slt i32 %conv20, 55204
  br i1 %cmp21, label %for.body, label %for.end

for.body:                                         ; preds = %for.cond
  %26 = load ptr, ptr %sa.addr, align 8
  %add22 = getelementptr inbounds %struct.USetAdder, ptr %26, i32 0, i32 1
  %27 = load ptr, ptr %add22, align 8
  %28 = load ptr, ptr %sa.addr, align 8
  %set23 = getelementptr inbounds %struct.USetAdder, ptr %28, i32 0, i32 0
  %29 = load ptr, ptr %set23, align 8
  %30 = load i16, ptr %c, align 2
  %conv24 = zext i16 %30 to i32
  call void %27(ptr noundef %29, i32 noundef %conv24)
  %31 = load ptr, ptr %sa.addr, align 8
  %add25 = getelementptr inbounds %struct.USetAdder, ptr %31, i32 0, i32 1
  %32 = load ptr, ptr %add25, align 8
  %33 = load ptr, ptr %sa.addr, align 8
  %set26 = getelementptr inbounds %struct.USetAdder, ptr %33, i32 0, i32 0
  %34 = load ptr, ptr %set26, align 8
  %35 = load i16, ptr %c, align 2
  %conv27 = zext i16 %35 to i32
  %add28 = add nsw i32 %conv27, 1
  call void %32(ptr noundef %34, i32 noundef %add28)
  br label %for.inc

for.inc:                                          ; preds = %for.body
  %36 = load i16, ptr %c, align 2
  %conv29 = zext i16 %36 to i32
  %add30 = add nsw i32 %conv29, 28
  %conv31 = trunc i32 %add30 to i16
  store i16 %conv31, ptr %c, align 2
  br label %for.cond, !llvm.loop !14

for.end:                                          ; preds = %for.cond
  %37 = load ptr, ptr %sa.addr, align 8
  %add32 = getelementptr inbounds %struct.USetAdder, ptr %37, i32 0, i32 1
  %38 = load ptr, ptr %add32, align 8
  %39 = load ptr, ptr %sa.addr, align 8
  %set33 = getelementptr inbounds %struct.USetAdder, ptr %39, i32 0, i32 0
  %40 = load ptr, ptr %set33, align 8
  call void %38(ptr noundef %40, i32 noundef 55204)
  ret void
}