; Function Attrs: mustprogress uwtable
define void @_ZNK6icu_7515Normalizer2Impl17addPropertyStartsEPK9USetAdderR10UErrorCode(ptr nocapture noundef nonnull readonly align 8 dereferenceable(80) %this, ptr nocapture noundef readonly %sa, ptr nocapture noundef nonnull readnone align 4 dereferenceable(4) %0) local_unnamed_addr #0 align 2 {
entry:
  %value = alloca i32, align 4
  %normTrie = getelementptr inbounds i8, ptr %this, i64 32
  %1 = load ptr, ptr %normTrie, align 8
  %call46 = call i32 @ucptrie_getRange_75(ptr noundef %1, i32 noundef 0, i32 noundef 1, i32 noundef 1, ptr noundef null, ptr noundef null, ptr noundef nonnull %value)
  %cmp47 = icmp sgt i32 %call46, -1
  br i1 %cmp47, label %while.body.lr.ph, label %for.cond.preheader

while.body.lr.ph:                                 ; preds = %entry
  %add = getelementptr inbounds i8, ptr %sa, i64 8
  %limitNoNo.i = getelementptr inbounds i8, ptr %this, i64 26
  %minMaybeYes.i = getelementptr inbounds i8, ptr %this, i64 30
  %minDecompNoCP.i = getelementptr inbounds i8, ptr %this, i64 8
  %smallFCD.i.i = getelementptr inbounds i8, ptr %this, i64 56
  br label %while.body

for.cond.preheader:                               ; preds = %if.end17, %entry
  %add22 = getelementptr inbounds i8, ptr %sa, i64 8
  br label %for.body

while.body:                                       ; preds = %while.body.lr.ph, %if.end17
  %call49 = phi i32 [ %call46, %while.body.lr.ph ], [ %call, %if.end17 ]
  %start.048 = phi i32 [ 0, %while.body.lr.ph ], [ %add18, %if.end17 ]
  %2 = load ptr, ptr %add, align 8
  %3 = load ptr, ptr %sa, align 8
  call void %2(ptr noundef %3, i32 noundef %start.048)
  %cmp2.not = icmp eq i32 %start.048, %call49
  br i1 %cmp2.not, label %if.end17, label %land.lhs.true

land.lhs.true:                                    ; preds = %while.body
  %4 = load i32, ptr %value, align 4
  %conv = trunc i32 %4 to i16
  %5 = load i16, ptr %limitNoNo.i, align 2
  %cmp.not.i = icmp ule i16 %5, %conv
  %6 = load i16, ptr %minMaybeYes.i, align 2
  %cmp5.i = icmp ugt i16 %6, %conv
  %narrow.i = select i1 %cmp.not.i, i1 %cmp5.i, i1 false
  %and = and i32 %4, 6
  %cmp5 = icmp ugt i32 %and, 2
  %or.cond = and i1 %cmp5, %narrow.i
  br i1 %or.cond, label %if.then, label %if.end17

if.then:                                          ; preds = %land.lhs.true
  %7 = load i16, ptr %minDecompNoCP.i, align 8
  %conv.i = zext i16 %7 to i32
  %cmp.i = icmp slt i32 %start.048, %conv.i
  br i1 %cmp.i, label %_ZNK6icu_7515Normalizer2Impl8getFCD16Ei.exit, label %if.else.i

if.else.i:                                        ; preds = %if.then
  %cmp2.i = icmp ult i32 %start.048, 65536
  br i1 %cmp2.i, label %if.then3.i, label %if.end6.i

if.then3.i:                                       ; preds = %if.else.i
  %8 = load ptr, ptr %smallFCD.i.i, align 8
  %shr.i.i = lshr i32 %start.048, 8
  %idxprom.i.i = zext nneg i32 %shr.i.i to i64
  %arrayidx.i.i = getelementptr inbounds i8, ptr %8, i64 %idxprom.i.i
  %9 = load i8, ptr %arrayidx.i.i, align 1
  %cmp.i.i = icmp eq i8 %9, 0
  %conv.i.i = zext i8 %9 to i32
  %shr3.i.i = lshr i32 %start.048, 5
  %and.i.i = and i32 %shr3.i.i, 7
  %10 = shl nuw nsw i32 1, %and.i.i
  %11 = and i32 %10, %conv.i.i
  %tobool.not4.i = icmp eq i32 %11, 0
  %tobool.not.i = select i1 %cmp.i.i, i1 true, i1 %tobool.not4.i
  br i1 %tobool.not.i, label %_ZNK6icu_7515Normalizer2Impl8getFCD16Ei.exit, label %if.end6.i

if.end6.i:                                        ; preds = %if.then3.i, %if.else.i
  %call7.i = call noundef zeroext i16 @_ZNK6icu_7515Normalizer2Impl20getFCD16FromNormDataEi(ptr noundef nonnull align 8 dereferenceable(80) %this, i32 noundef %start.048)
  br label %_ZNK6icu_7515Normalizer2Impl8getFCD16Ei.exit

_ZNK6icu_7515Normalizer2Impl8getFCD16Ei.exit:     ; preds = %if.then, %if.then3.i, %if.end6.i
  %retval.0.i = phi i16 [ %call7.i, %if.end6.i ], [ 0, %if.then ], [ 0, %if.then3.i ]
  %cmp8.not.not43 = icmp slt i32 %start.048, %call49
  br i1 %cmp8.not.not43, label %while.body9, label %if.end17

while.body9:                                      ; preds = %_ZNK6icu_7515Normalizer2Impl8getFCD16Ei.exit, %if.end
  %inc45.in = phi i32 [ %inc45, %if.end ], [ %start.048, %_ZNK6icu_7515Normalizer2Impl8getFCD16Ei.exit ]
  %prevFCD16.044 = phi i16 [ %prevFCD16.1, %if.end ], [ %retval.0.i, %_ZNK6icu_7515Normalizer2Impl8getFCD16Ei.exit ]
  %inc45 = add nsw i32 %inc45.in, 1
  %12 = load i16, ptr %minDecompNoCP.i, align 8
  %conv.i23 = zext i16 %12 to i32
  %cmp.i24 = icmp slt i32 %inc45, %conv.i23
  br i1 %cmp.i24, label %_ZNK6icu_7515Normalizer2Impl8getFCD16Ei.exit41, label %if.else.i25

if.else.i25:                                      ; preds = %while.body9
  %cmp2.i26 = icmp ult i32 %inc45, 65536
  br i1 %cmp2.i26, label %if.then3.i30, label %if.end6.i27

if.then3.i30:                                     ; preds = %if.else.i25
  %13 = load ptr, ptr %smallFCD.i.i, align 8
  %shr.i.i32 = lshr i32 %inc45, 8
  %idxprom.i.i33 = zext nneg i32 %shr.i.i32 to i64
  %arrayidx.i.i34 = getelementptr inbounds i8, ptr %13, i64 %idxprom.i.i33
  %14 = load i8, ptr %arrayidx.i.i34, align 1
  %cmp.i.i35 = icmp eq i8 %14, 0
  %conv.i.i36 = zext i8 %14 to i32
  %shr3.i.i37 = lshr i32 %inc45, 5
  %and.i.i38 = and i32 %shr3.i.i37, 7
  %15 = shl nuw nsw i32 1, %and.i.i38
  %16 = and i32 %15, %conv.i.i36
  %tobool.not4.i39 = icmp eq i32 %16, 0
  %tobool.not.i40 = select i1 %cmp.i.i35, i1 true, i1 %tobool.not4.i39
  br i1 %tobool.not.i40, label %_ZNK6icu_7515Normalizer2Impl8getFCD16Ei.exit41, label %if.end6.i27

if.end6.i27:                                      ; preds = %if.then3.i30, %if.else.i25
  %call7.i28 = call noundef zeroext i16 @_ZNK6icu_7515Normalizer2Impl20getFCD16FromNormDataEi(ptr noundef nonnull align 8 dereferenceable(80) %this, i32 noundef %inc45)
  br label %_ZNK6icu_7515Normalizer2Impl8getFCD16Ei.exit41

_ZNK6icu_7515Normalizer2Impl8getFCD16Ei.exit41:   ; preds = %while.body9, %if.then3.i30, %if.end6.i27
  %retval.0.i29 = phi i16 [ %call7.i28, %if.end6.i27 ], [ 0, %while.body9 ], [ 0, %if.then3.i30 ]
  %cmp13.not = icmp eq i16 %retval.0.i29, %prevFCD16.044
  br i1 %cmp13.not, label %if.end, label %if.then14

if.then14:                                        ; preds = %_ZNK6icu_7515Normalizer2Impl8getFCD16Ei.exit41
  %17 = load ptr, ptr %add, align 8
  %18 = load ptr, ptr %sa, align 8
  call void %17(ptr noundef %18, i32 noundef %inc45)
  br label %if.end

if.end:                                           ; preds = %if.then14, %_ZNK6icu_7515Normalizer2Impl8getFCD16Ei.exit41
  %prevFCD16.1 = phi i16 [ %retval.0.i29, %if.then14 ], [ %prevFCD16.044, %_ZNK6icu_7515Normalizer2Impl8getFCD16Ei.exit41 ]
  %exitcond.not = icmp eq i32 %inc45, %call49
  br i1 %exitcond.not, label %if.end17, label %while.body9, !llvm.loop !13

if.end17:                                         ; preds = %if.end, %_ZNK6icu_7515Normalizer2Impl8getFCD16Ei.exit, %land.lhs.true, %while.body
  %add18 = add nuw nsw i32 %call49, 1
  %19 = load ptr, ptr %normTrie, align 8
  %call = call i32 @ucptrie_getRange_75(ptr noundef %19, i32 noundef %add18, i32 noundef 1, i32 noundef 1, ptr noundef null, ptr noundef null, ptr noundef nonnull %value)
  %cmp = icmp sgt i32 %call, -1
  br i1 %cmp, label %while.body, label %for.cond.preheader, !llvm.loop !14

for.body:                                         ; preds = %for.cond.preheader, %for.body
  %conv2051 = phi i32 [ 44032, %for.cond.preheader ], [ %add30, %for.body ]
  %20 = load ptr, ptr %add22, align 8
  %21 = load ptr, ptr %sa, align 8
  call void %20(ptr noundef %21, i32 noundef %conv2051)
  %22 = load ptr, ptr %add22, align 8
  %23 = load ptr, ptr %sa, align 8
  %add28 = or disjoint i32 %conv2051, 1
  call void %22(ptr noundef %23, i32 noundef %add28)
  %add30 = add nuw nsw i32 %conv2051, 28
  %cmp21 = icmp ult i32 %conv2051, 55176
  br i1 %cmp21, label %for.body, label %for.end, !llvm.loop !15

for.end:                                          ; preds = %for.body
  %24 = load ptr, ptr %add22, align 8
  %25 = load ptr, ptr %sa, align 8
  call void %24(ptr noundef %25, i32 noundef 55204)
  ret void
}